; Function Attrs: mustprogress uwtable
define internal void @_ZN12_GLOBAL__N_123propagate_values_tactic11updt_paramsERK10params_ref(ptr noundef nonnull align 8 dereferenceable(120) %0, ptr noundef nonnull align 8 dereferenceable(8) %1) unnamed_addr #3 align 2 personality ptr @__gxx_personality_v0 {
  %3 = alloca %struct.tactic_params, align 8
  %4 = getelementptr inbounds nuw i8, ptr %0, i64 112
  tail call void @_ZN10params_ref4copyERKS_(ptr noundef nonnull align 8 dereferenceable(8) %4, ptr noundef nonnull align 8 dereferenceable(8) %1)
  %5 = getelementptr inbounds nuw i8, ptr %0, i64 24
  tail call void @_ZN11th_rewriter11updt_paramsERK10params_ref(ptr noundef nonnull align 8 dereferenceable(16) %5, ptr noundef nonnull align 8 dereferenceable(8) %1)
  call void @llvm.lifetime.start.p0(i64 16, ptr nonnull %3) #20
  store ptr %4, ptr %3, align 8, !tbaa !29
  %6 = getelementptr inbounds nuw i8, ptr %3, i64 8
  call void @_ZN7gparams10get_moduleEPKc(ptr dead_on_unwind nonnull writable sret(%class.params_ref) align 8 %6, ptr noundef nonnull @.str.5)
  %7 = load ptr, ptr %3, align 8, !tbaa !31
  %8 = invoke noundef i32 @_ZNK10params_ref8get_uintEPKcRKS_j(ptr noundef nonnull align 8 dereferenceable(8) %7, ptr noundef nonnull @.str.6, ptr noundef nonnull align 8 dereferenceable(8) %6, i32 noundef 4)
          to label %_ZNK13tactic_params27propagate_values_max_roundsEv.exit.i unwind label %10

_ZNK13tactic_params27propagate_values_max_roundsEv.exit.i: ; preds = %2
  %9 = invoke noundef i32 @_ZNK10params_ref8get_uintEPKcj(ptr noundef nonnull align 8 dereferenceable(8) %4, ptr noundef nonnull @.str.4, i32 noundef %8)
          to label %_ZN12_GLOBAL__N_123propagate_values_tactic16updt_params_coreERK10params_ref.exit unwind label %10

10:                                               ; preds = %_ZNK13tactic_params27propagate_values_max_roundsEv.exit.i, %2
  %11 = landingpad { ptr, i32 }
          cleanup
  call void @_ZN10params_refD1Ev(ptr noundef nonnull align 8 dereferenceable(8) %6) #20
  call void @llvm.lifetime.end.p0(i64 16, ptr nonnull %3) #20
  resume { ptr, i32 } %11

_ZN12_GLOBAL__N_123propagate_values_tactic16updt_params_coreERK10params_ref.exit: ; preds = %_ZNK13tactic_params27propagate_values_max_roundsEv.exit.i
  %12 = getelementptr inbounds nuw i8, ptr %0, i64 100
  store i32 %9, ptr %12, align 4, !tbaa !35
  call void @_ZN10params_refD1Ev(ptr noundef nonnull align 8 dereferenceable(8) %6) #20
  call void @llvm.lifetime.end.p0(i64 16, ptr nonnull %3) #20
  ret void
}